target datalayout = "e-m:e-p270:32:32-p271:32:32-p272:64:64-i64:64-i128:128-f80:128-n8:16:32:64-S128"
target triple = "x86_64-pc-linux-gnu"

%struct.lex_context = type { i16, [2 x i8] }
%struct.parser_params = type { ptr, ptr, %struct.anon.12, i64, i64, i32, i32, i32, i32, i32, ptr, ptr, ptr, ptr, i32, i32, ptr, i64, ptr, ptr, ptr, ptr, i64, i64, %struct.anon.13, ptr, i32, ptr, i32, i64, %struct.lex_context, ptr, ptr, ptr, i32, i64, ptr, ptr, i32, ptr }
%struct.anon.12 = type { ptr, ptr, ptr, %struct.parser_string_buffer, ptr, ptr, ptr, ptr, ptr, ptr, i32, i32, i32, i32 }
%struct.parser_string_buffer = type { ptr, ptr }
%struct.anon.13 = type { ptr, i32, i32, i32, i32 }

; Function Attrs: nounwind sspstrong uwtable
define hidden void @rb_ruby_parser_set_options(ptr noundef %0, i32 noundef %1, i32 noundef %2, i32 noundef %3, i32 noundef %4) #0 {
  %6 = alloca ptr, align 8
  %7 = alloca i32, align 4
  %8 = alloca i32, align 4
  %9 = alloca i32, align 4
  %10 = alloca i32, align 4
  store ptr %0, ptr %6, align 8, !tbaa !7
  store i32 %1, ptr %7, align 4, !tbaa !34
  store i32 %2, ptr %8, align 4, !tbaa !34
  store i32 %3, ptr %9, align 4, !tbaa !34
  store i32 %4, ptr %10, align 4, !tbaa !34
  %11 = load i32, ptr %7, align 4, !tbaa !34
  %12 = load ptr, ptr %6, align 8, !tbaa !7
  %13 = getelementptr inbounds nuw %struct.parser_params, ptr %12, i32 0, i32 34
  %14 = load i32, ptr %13, align 8
  %15 = and i32 %11, 1
  %16 = shl i32 %15, 11
  %17 = and i32 %14, -2049
  %18 = or i32 %17, %16
  store i32 %18, ptr %13, align 8
  %19 = load i32, ptr %8, align 4, !tbaa !34
  %20 = load ptr, ptr %6, align 8, !tbaa !7
  %21 = getelementptr inbounds nuw %struct.parser_params, ptr %20, i32 0, i32 34
  %22 = load i32, ptr %21, align 8
  %23 = and i32 %19, 1
  %24 = shl i32 %23, 12
  %25 = and i32 %22, -4097
  %26 = or i32 %25, %24
  store i32 %26, ptr %21, align 8
  %27 = load i32, ptr %9, align 4, !tbaa !34
  %28 = load ptr, ptr %6, align 8, !tbaa !7
  %29 = getelementptr inbounds nuw %struct.parser_params, ptr %28, i32 0, i32 34
  %30 = load i32, ptr %29, align 8
  %31 = and i32 %27, 1
  %32 = shl i32 %31, 13
  %33 = and i32 %30, -8193
  %34 = or i32 %33, %32
  store i32 %34, ptr %29, align 8
  %35 = load i32, ptr %10, align 4, !tbaa !34
  %36 = load ptr, ptr %6, align 8, !tbaa !7
  %37 = getelementptr inbounds nuw %struct.parser_params, ptr %36, i32 0, i32 34
  %38 = load i32, ptr %37, align 8
  %39 = and i32 %35, 1
  %40 = shl i32 %39, 14
  %41 = and i32 %38, -16385
  %42 = or i32 %41, %40
  store i32 %42, ptr %37, align 8
  ret void
}