; Function Attrs: mustprogress nofree norecurse nosync nounwind sspstrong willreturn memory(argmem: readwrite) uwtable
define hidden void @rb_ruby_parser_set_options(ptr noundef captures(none) %0, i32 noundef %1, i32 noundef %2, i32 noundef %3, i32 noundef %4) local_unnamed_addr #4 {
  %6 = getelementptr inbounds nuw i8, ptr %0, i64 360
  %7 = load i32, ptr %6, align 8
  %8 = shl i32 %1, 11
  %9 = and i32 %8, 2048
  %10 = and i32 %7, -30721
  %11 = shl i32 %2, 12
  %12 = and i32 %11, 4096
  %13 = shl i32 %3, 13
  %14 = and i32 %13, 8192
  %15 = shl i32 %4, 14
  %16 = and i32 %15, 16384
  %17 = or disjoint i32 %12, %9
  %18 = or disjoint i32 %17, %14
  %19 = or disjoint i32 %18, %16
  %20 = or disjoint i32 %19, %10
  store i32 %20, ptr %6, align 8
  ret void
}